target datalayout = "e-m:e-p270:32:32-p271:32:32-p272:64:64-i64:64-i128:128-f80:128-n8:16:32:64-S128"
target triple = "x86_64-pc-linux-gnu"

@.str.3 = private unnamed_addr constant [2 x i8] c"\0A\00", align 1
@.str.4 = private unnamed_addr constant [38 x i8] c"    test_cell [options] {cell-types}\0A\00", align 1
@.str.5 = private unnamed_addr constant [79 x i8] c"Tests the internal implementation of the given cell type (for example '$add')\0A\00", align 1
@.str.6 = private unnamed_addr constant [79 x i8] c"by comparing SAT solver, EVAL and TECHMAP implementations of the cell types..\0A\00", align 1
@.str.7 = private unnamed_addr constant [72 x i8] c"Run with 'all' instead of a cell type to run the test on all supported\0A\00", align 1
@.str.8 = private unnamed_addr constant [73 x i8] c"cell types. Use for example 'all /$add' for all cell types except $add.\0A\00", align 1
@.str.9 = private unnamed_addr constant [18 x i8] c"    -n {integer}\0A\00", align 1
@.str.10 = private unnamed_addr constant [77 x i8] c"        create this number of cell instances and test them (default = 100).\0A\00", align 1
@.str.11 = private unnamed_addr constant [27 x i8] c"    -s {positive_integer}\0A\00", align 1
@.str.12 = private unnamed_addr constant [65 x i8] c"        use this value as rng seed value (default = unix time).\0A\00", align 1
@.str.13 = private unnamed_addr constant [21 x i8] c"    -f {rtlil_file}\0A\00", align 1
@.str.14 = private unnamed_addr constant [73 x i8] c"        don't generate circuits. instead load the specified RTLIL file.\0A\00", align 1
@.str.15 = private unnamed_addr constant [26 x i8] c"    -w {filename_prefix}\0A\00", align 1
@.str.16 = private unnamed_addr constant [72 x i8] c"        don't test anything. just generate the circuits and write them\0A\00", align 1
@.str.17 = private unnamed_addr constant [50 x i8] c"        to RTLIL files with the specified prefix\0A\00", align 1
@.str.18 = private unnamed_addr constant [21 x i8] c"    -map {filename}\0A\00", align 1
@.str.19 = private unnamed_addr constant [38 x i8] c"        pass this option to techmap.\0A\00", align 1
@.str.20 = private unnamed_addr constant [13 x i8] c"    -simlib\0A\00", align 1
@.str.21 = private unnamed_addr constant [80 x i8] c"        use \22techmap -D SIMLIB_NOCHECKS -map +/simlib.v -max_iter 2 -autoproc\22\0A\00", align 1
@.str.22 = private unnamed_addr constant [13 x i8] c"    -aigmap\0A\00", align 1
@.str.23 = private unnamed_addr constant [53 x i8] c"        instead of calling \22techmap\22, call \22aigmap\22\0A\00", align 1
@.str.24 = private unnamed_addr constant [13 x i8] c"    -muxdiv\0A\00", align 1
@.str.25 = private unnamed_addr constant [76 x i8] c"        when creating test benches with dividers, create an additional mux\0A\00", align 1
@.str.26 = private unnamed_addr constant [47 x i8] c"        to mask out the division-by-zero case\0A\00", align 1
@.str.27 = private unnamed_addr constant [27 x i8] c"    -script {script_file}\0A\00", align 1
@.str.28 = private unnamed_addr constant [68 x i8] c"        instead of calling \22techmap\22, call \22script {script_file}\22.\0A\00", align 1
@.str.29 = private unnamed_addr constant [12 x i8] c"    -const\0A\00", align 1
@.str.30 = private unnamed_addr constant [55 x i8] c"        set some input bits to random constant values\0A\00", align 1
@.str.31 = private unnamed_addr constant [12 x i8] c"    -nosat\0A\00", align 1
@.str.32 = private unnamed_addr constant [64 x i8] c"        do not check SAT model or run SAT equivalence checking\0A\00", align 1
@.str.33 = private unnamed_addr constant [13 x i8] c"    -noeval\0A\00", align 1
@.str.34 = private unnamed_addr constant [40 x i8] c"        do not check const-eval models\0A\00", align 1
@.str.35 = private unnamed_addr constant [12 x i8] c"    -edges\0A\00", align 1
@.str.36 = private unnamed_addr constant [69 x i8] c"        test cell edges db creator against sat-based implementation\0A\00", align 1
@.str.37 = private unnamed_addr constant [8 x i8] c"    -v\0A\00", align 1
@.str.38 = private unnamed_addr constant [59 x i8] c"        print additional debug information to the console\0A\00", align 1
@.str.39 = private unnamed_addr constant [22 x i8] c"    -vlog {filename}\0A\00", align 1
@.str.40 = private unnamed_addr constant [70 x i8] c"        create a Verilog test bench to test simlib and write_verilog\0A\00", align 1

; Function Attrs: mustprogress uwtable
define internal void @_ZN12_GLOBAL__N_112TestCellPass4helpEv(ptr noundef nonnull align 8 dereferenceable(104) %0) unnamed_addr #4 align 2 {
  %2 = alloca ptr, align 8
  store ptr %0, ptr %2, align 8
  call void (ptr, ...) @_ZN5Yosys3logEPKcz(ptr noundef @.str.3)
  call void (ptr, ...) @_ZN5Yosys3logEPKcz(ptr noundef @.str.4)
  call void (ptr, ...) @_ZN5Yosys3logEPKcz(ptr noundef @.str.3)
  call void (ptr, ...) @_ZN5Yosys3logEPKcz(ptr noundef @.str.5)
  call void (ptr, ...) @_ZN5Yosys3logEPKcz(ptr noundef @.str.6)
  call void (ptr, ...) @_ZN5Yosys3logEPKcz(ptr noundef @.str.3)
  call void (ptr, ...) @_ZN5Yosys3logEPKcz(ptr noundef @.str.7)
  call void (ptr, ...) @_ZN5Yosys3logEPKcz(ptr noundef @.str.8)
  call void (ptr, ...) @_ZN5Yosys3logEPKcz(ptr noundef @.str.3)
  call void (ptr, ...) @_ZN5Yosys3logEPKcz(ptr noundef @.str.9)
  call void (ptr, ...) @_ZN5Yosys3logEPKcz(ptr noundef @.str.10)
  call void (ptr, ...) @_ZN5Yosys3logEPKcz(ptr noundef @.str.3)
  call void (ptr, ...) @_ZN5Yosys3logEPKcz(ptr noundef @.str.11)
  call void (ptr, ...) @_ZN5Yosys3logEPKcz(ptr noundef @.str.12)
  call void (ptr, ...) @_ZN5Yosys3logEPKcz(ptr noundef @.str.3)
  call void (ptr, ...) @_ZN5Yosys3logEPKcz(ptr noundef @.str.13)
  call void (ptr, ...) @_ZN5Yosys3logEPKcz(ptr noundef @.str.14)
  call void (ptr, ...) @_ZN5Yosys3logEPKcz(ptr noundef @.str.3)
  call void (ptr, ...) @_ZN5Yosys3logEPKcz(ptr noundef @.str.15)
  call void (ptr, ...) @_ZN5Yosys3logEPKcz(ptr noundef @.str.16)
  call void (ptr, ...) @_ZN5Yosys3logEPKcz(ptr noundef @.str.17)
  call void (ptr, ...) @_ZN5Yosys3logEPKcz(ptr noundef @.str.3)
  call void (ptr, ...) @_ZN5Yosys3logEPKcz(ptr noundef @.str.18)
  call void (ptr, ...) @_ZN5Yosys3logEPKcz(ptr noundef @.str.19)
  call void (ptr, ...) @_ZN5Yosys3logEPKcz(ptr noundef @.str.3)
  call void (ptr, ...) @_ZN5Yosys3logEPKcz(ptr noundef @.str.20)
  call void (ptr, ...) @_ZN5Yosys3logEPKcz(ptr noundef @.str.21)
  call void (ptr, ...) @_ZN5Yosys3logEPKcz(ptr noundef @.str.3)
  call void (ptr, ...) @_ZN5Yosys3logEPKcz(ptr noundef @.str.22)
  call void (ptr, ...) @_ZN5Yosys3logEPKcz(ptr noundef @.str.23)
  call void (ptr, ...) @_ZN5Yosys3logEPKcz(ptr noundef @.str.3)
  call void (ptr, ...) @_ZN5Yosys3logEPKcz(ptr noundef @.str.24)
  call void (ptr, ...) @_ZN5Yosys3logEPKcz(ptr noundef @.str.25)
  call void (ptr, ...) @_ZN5Yosys3logEPKcz(ptr noundef @.str.26)
  call void (ptr, ...) @_ZN5Yosys3logEPKcz(ptr noundef @.str.3)
  call void (ptr, ...) @_ZN5Yosys3logEPKcz(ptr noundef @.str.27)
  call void (ptr, ...) @_ZN5Yosys3logEPKcz(ptr noundef @.str.28)
  call void (ptr, ...) @_ZN5Yosys3logEPKcz(ptr noundef @.str.3)
  call void (ptr, ...) @_ZN5Yosys3logEPKcz(ptr noundef @.str.29)
  call void (ptr, ...) @_ZN5Yosys3logEPKcz(ptr noundef @.str.30)
  call void (ptr, ...) @_ZN5Yosys3logEPKcz(ptr noundef @.str.3)
  call void (ptr, ...) @_ZN5Yosys3logEPKcz(ptr noundef @.str.31)
  call void (ptr, ...) @_ZN5Yosys3logEPKcz(ptr noundef @.str.32)
  call void (ptr, ...) @_ZN5Yosys3logEPKcz(ptr noundef @.str.3)
  call void (ptr, ...) @_ZN5Yosys3logEPKcz(ptr noundef @.str.33)
  call void (ptr, ...) @_ZN5Yosys3logEPKcz(ptr noundef @.str.34)
  call void (ptr, ...) @_ZN5Yosys3logEPKcz(ptr noundef @.str.3)
  call void (ptr, ...) @_ZN5Yosys3logEPKcz(ptr noundef @.str.35)
  call void (ptr, ...) @_ZN5Yosys3logEPKcz(ptr noundef @.str.36)
  call void (ptr, ...) @_ZN5Yosys3logEPKcz(ptr noundef @.str.3)
  call void (ptr, ...) @_ZN5Yosys3logEPKcz(ptr noundef @.str.37)
  call void (ptr, ...) @_ZN5Yosys3logEPKcz(ptr noundef @.str.38)
  call void (ptr, ...) @_ZN5Yosys3logEPKcz(ptr noundef @.str.3)
  call void (ptr, ...) @_ZN5Yosys3logEPKcz(ptr noundef @.str.39)
  call void (ptr, ...) @_ZN5Yosys3logEPKcz(ptr noundef @.str.40)
  call void (ptr, ...) @_ZN5Yosys3logEPKcz(ptr noundef @.str.3)
  ret void
}